Certificate:
    Data:
        Version: 3 (0x2)
        Serial Number:
            30:16:13:0d:c9:07:c5:77:ba:35:2d:b8:e6:57:1c:5b
    Signature Algorithm: sha256WithRSAEncryption
        Issuer: CN=rasvpnCA
        Validity
            Not Before: May 19 22:53:02 2020 GMT
            Not After : Aug 22 22:53:02 2022 GMT
        Subject: CN=rasvpnSRV
        Subject Public Key Info:
            Public Key Algorithm: rsaEncryption
                Public-Key: (2048 bit)
                Modulus:
                    00:c0:22:7f:af:7d:35:ea:1b:92:19:35:2f:19:30:
                    5f:d9:87:6d:56:07:b6:85:e2:36:52:da:77:9d:82:
                    3a:7b:6b:dd:e2:46:76:bc:3b:b0:7d:7b:b4:bc:83:
                    88:3d:17:cc:32:ed:61:2d:55:ec:de:a7:73:d4:14:
                    4e:3d:fd:1b:ef:71:bb:11:79:3d:ea:e9:5a:b9:ed:
                    1e:ea:68:87:72:8e:17:ad:f4:f7:ee:e0:b8:a3:25:
                    9c:f5:18:1c:e1:46:3b:3e:85:f6:65:8b:64:c6:f0:
                    4d:d7:03:60:79:14:ae:f5:a9:98:a7:68:92:98:a5:
                    37:04:f0:e3:d3:7c:74:85:ef:b2:cf:f1:a4:5c:f4:
                    05:f6:af:f1:60:7b:b2:cb:7f:b6:f2:44:e6:8c:cf:
                    1f:e2:0a:37:9a:ab:7c:80:6b:4f:84:2a:6a:83:15:
                    68:20:77:e0:8d:f2:b6:8d:5c:ca:38:8d:25:e7:8f:
                    4c:d5:5b:f9:2f:8b:45:d9:3f:7a:32:6f:f3:80:e8:
                    4f:c7:64:45:94:09:4f:b8:4e:29:ca:29:a6:17:5d:
                    27:e0:14:7f:9d:be:67:c4:71:cd:a9:93:5b:73:e8:
                    7e:7f:aa:c6:c2:2f:2a:b9:12:94:b1:fa:0b:63:5f:
                    62:9d:40:ee:c0:29:6a:9e:8a:16:67:71:da:ec:3d:
                    23:55
                Exponent: 65537 (0x10001)
        X509v3 extensions:
            X509v3 Basic Constraints:
                CA:FALSE
            X509v3 Subject Key Identifier:
                7F:1F:65:01:FD:36:4E:F7:B2:DA:FC:ED:41:ED:86:38:FA:FE:05:78
            X509v3 Authority Key Identifier:
                keyid:5F:BA:E6:2B:BD:07:DA:77:CF:6A:1C:E6:51:71:F4:72:39:19:96:32
                DirName:/CN=rasvpnCA
                serial:DC:08:5A:DF:9F:87:7D:4B

            X509v3 Extended Key Usage:
                TLS Web Server Authentication
            X509v3 Key Usage:
                Digital Signature, Key Encipherment
            X509v3 Subject Alternative Name:
                DNS:rasvpnSRV
    Signature Algorithm: sha256WithRSAEncryption
         1c:f3:fd:e8:26:22:7b:ab:16:1d:17:2f:6e:ee:b2:02:de:dc:
         06:26:58:7f:25:8d:b5:36:f7:20:4a:ea:bf:df:0c:a5:bc:c6:
         b0:de:2c:40:b3:80:ff:78:55:f0:ff:09:77:ed:f4:fe:94:b4:
         cc:be:42:c1:49:6e:36:eb:5d:3f:d8:f5:c2:7a:bb:40:6b:cb:
         0f:19:52:9a:40:71:22:53:ca:34:19:39:09:fa:3e:c6:04:5c:
         4a:45:e8:dd:14:34:5f:52:a3:d1:c9:34:8d:86:2e:b8:9d:c9:
         c6:d6:df:bd:97:97:58:ba:90:60:e7:84:81:8f:26:9d:55:3b:
         05:aa:ba:86:69:4f:62:51:bd:ea:1f:8c:9a:af:47:5d:c7:8d:
         72:f7:27:62:7a:2c:3a:e8:3d:eb:31:d6:21:60:33:67:65:38:
         21:3b:88:65:31:7f:8c:6e:b4:8d:01:51:13:e6:3f:3a:97:aa:
         54:62:ce:a2:2c:85:57:98:c2:77:3d:ff:2b:59:51:63:d1:8d:
         e2:d1:e5:17:d9:6b:42:1e:76:1e:72:28:7c:f9:74:3d:6e:b9:
         2f:77:1e:25:c5:26:8a:d2:b7:17:29:2d:c2:e4:b5:34:06:8f:
         33:6f:cd:28:44:73:79:68:5d:7f:aa:86:e2:16:76:df:63:ef:
         00:a8:3d:72
-----BEGIN CERTIFICATE-----
MIIDXDCCAkSgAwIBAgIQMBYTDckHxXe6NS245lccWzANBgkqhkiG9w0BAQsFADAT
MREwDwYDVQQDDAhyYXN2cG5DQTAeFw0yMDA1MTkyMjUzMDJaFw0yMjA4MjIyMjUz
MDJaMBQxEjAQBgNVBAMMCXJhc3ZwblNSVjCCASIwDQYJKoZIhvcNAQEBBQADggEP
ADCCAQoCggEBAMAif699Neobkhk1LxkwX9mHbVYHtoXiNlLad52COntr3eJGdrw7
sH17tLyDiD0XzDLtYS1V7N6nc9QUTj39G+9xuxF5PerpWrntHupoh3KOF6309+7g
uKMlnPUYHOFGOz6F9mWLZMbwTdcDYHkUrvWpmKdokpilNwTw49N8dIXvss/xpFz0
Bfav8WB7sst/tvJE5ozPH+IKN5qrfIBrT4QqaoMVaCB34I3yto1cyjiNJeePTNVb
+S+LRdk/ejJv84DoT8dkRZQJT7hOKcopphddJ+AUf52+Z8RxzamTW3Pofn+qxsIv
KrkSlLH6C2NfYp1A7sApap6KFmdx2uw9I1UCAwEAAaOBqjCBpzAJBgNVHRMEAjAA
MB0GA1UdDgQWBBR/H2UB/TZO97La/O1B7YY4+v4FeDBDBgNVHSMEPDA6gBRfuuYr
vQfad89qHOZRcfRyORmWMqEXpBUwEzERMA8GA1UEAwwIcmFzdnBuQ0GCCQDcCFrf
n4d9SzATBgNVHSUEDDAKBggrBgEFBQcDATALBgNVHQ8EBAMCBaAwFAYDVR0RBA0w
C4IJcmFzdnBuU1JWMA0GCSqGSIb3DQEBCwUAA4IBAQAc8/3oJiJ7qxYdFy9u7rIC
3twGJlh/JY21NvcgSuq/3wylvMaw3ixAs4D/eFXw/wl37fT+lLTMvkLBSW42610/
2PXCertAa8sPGVKaQHEiU8o0GTkJ+j7GBFxKRejdFDRfUqPRyTSNhi64ncnG1t+9
l5dYupBg54SBjyadVTsFqrqGaU9iUb3qH4yar0ddx41y9ydieiw66D3rMdYhYDNn
ZTghO4hlMX+MbrSNAVET5j86l6pUYs6iLIVXmMJ3Pf8rWVFj0Y3i0eUX2WtCHnYe
cih8+XQ9brkvdx4lxSaK0rcXKS3C5LU0Bo8zb80oRHN5aF1/qobiFnbfY+8AqD1y
-----END CERTIFICATE-----
